; Function Attrs: nounwind uwtable
define range(i32 -102, 1) i32 @IDADlsSetDenseJacFnBS(ptr noundef %0, i32 noundef %1, ptr noundef %2) local_unnamed_addr #0 {
  %4 = icmp eq ptr %0, null
  br i1 %4, label %5, label %6

5:                                                ; preds = %3
  tail call void (ptr, i32, ptr, ptr, ptr, ...) @IDAProcessError(ptr noundef null, i32 noundef -1, ptr noundef nonnull @.str, ptr noundef nonnull @.str.22, ptr noundef nonnull @.str.18) #7
  br label %IDADlsSetDenseJacFn.exit

6:                                                ; preds = %3
  %7 = getelementptr inbounds nuw i8, ptr %0, i64 1824
  %8 = load i32, ptr %7, align 8, !tbaa !50
  %9 = icmp eq i32 %8, 0
  br i1 %9, label %10, label %11

10:                                               ; preds = %6
  tail call void (ptr, i32, ptr, ptr, ptr, ...) @IDAProcessError(ptr noundef nonnull %0, i32 noundef -101, ptr noundef nonnull @.str, ptr noundef nonnull @.str.22, ptr noundef nonnull @.str.19) #7
  br label %IDADlsSetDenseJacFn.exit

11:                                               ; preds = %6
  %12 = getelementptr inbounds nuw i8, ptr %0, i64 1816
  %13 = load ptr, ptr %12, align 8, !tbaa !51
  %14 = getelementptr inbounds nuw i8, ptr %13, i64 40
  %15 = load i32, ptr %14, align 8, !tbaa !52
  %.not = icmp slt i32 %1, %15
  br i1 %.not, label %17, label %16

16:                                               ; preds = %11
  tail call void (ptr, i32, ptr, ptr, ptr, ...) @IDAProcessError(ptr noundef nonnull %0, i32 noundef -3, ptr noundef nonnull @.str, ptr noundef nonnull @.str.22, ptr noundef nonnull @.str.20) #7
  br label %IDADlsSetDenseJacFn.exit

17:                                               ; preds = %11
  %18 = getelementptr inbounds nuw i8, ptr %13, i64 32
  br label %.lr.ph

.lr.ph:                                           ; preds = %.lr.ph, %17
  %.024.sink.in = phi ptr [ %21, %.lr.ph ], [ %18, %17 ]
  %.024.sink = load ptr, ptr %.024.sink.in, align 8, !tbaa !57, !nonnull !58, !noundef !58
  %19 = load i32, ptr %.024.sink, align 8, !tbaa !59
  %20 = icmp eq i32 %1, %19
  %21 = getelementptr inbounds nuw i8, ptr %.024.sink, i64 128
  br i1 %20, label %._crit_edge, label %.lr.ph

._crit_edge:                                      ; preds = %.lr.ph
  %22 = getelementptr inbounds nuw i8, ptr %.024.sink, i64 16
  %23 = load ptr, ptr %22, align 8, !tbaa !62
  %24 = getelementptr inbounds nuw i8, ptr %.024.sink, i64 72
  %25 = load ptr, ptr %24, align 8, !tbaa !63
  %26 = icmp eq ptr %25, null
  br i1 %26, label %27, label %28

27:                                               ; preds = %._crit_edge
  tail call void (ptr, i32, ptr, ptr, ptr, ...) @IDAProcessError(ptr noundef %23, i32 noundef -102, ptr noundef nonnull @.str, ptr noundef nonnull @.str.22, ptr noundef nonnull @.str.21) #7
  br label %IDADlsSetDenseJacFn.exit

28:                                               ; preds = %._crit_edge
  %29 = getelementptr inbounds nuw i8, ptr %25, i64 16
  store ptr %2, ptr %29, align 8, !tbaa !72
  %.not29 = icmp eq ptr %2, null
  %30 = icmp eq ptr %23, null
  br i1 %.not29, label %41, label %31

31:                                               ; preds = %28
  br i1 %30, label %32, label %33

32:                                               ; preds = %31
  tail call void (ptr, i32, ptr, ptr, ptr, ...) @IDAProcessError(ptr noundef null, i32 noundef -1, ptr noundef nonnull @.str, ptr noundef nonnull @.str.1, ptr noundef nonnull @.str.2) #7
  br label %IDADlsSetDenseJacFn.exit

33:                                               ; preds = %31
  %34 = getelementptr inbounds nuw i8, ptr %23, i64 1632
  %35 = load ptr, ptr %34, align 8, !tbaa !3
  %36 = icmp eq ptr %35, null
  br i1 %36, label %37, label %38

37:                                               ; preds = %33
  tail call void (ptr, i32, ptr, ptr, ptr, ...) @IDAProcessError(ptr noundef nonnull %23, i32 noundef -2, ptr noundef nonnull @.str, ptr noundef nonnull @.str.1, ptr noundef nonnull @.str.3) #7
  br label %IDADlsSetDenseJacFn.exit

38:                                               ; preds = %33
  %39 = getelementptr inbounds nuw i8, ptr %35, i64 40
  store i32 0, ptr %39, align 8, !tbaa !17
  %40 = getelementptr inbounds nuw i8, ptr %35, i64 48
  store ptr @idaDlsDenseJacBSWrapper, ptr %40, align 8, !tbaa !21
  br label %IDADlsSetDenseJacFn.exit

41:                                               ; preds = %28
  br i1 %30, label %42, label %43

42:                                               ; preds = %41
  tail call void (ptr, i32, ptr, ptr, ptr, ...) @IDAProcessError(ptr noundef null, i32 noundef -1, ptr noundef nonnull @.str, ptr noundef nonnull @.str.1, ptr noundef nonnull @.str.2) #7
  br label %IDADlsSetDenseJacFn.exit

43:                                               ; preds = %41
  %44 = getelementptr inbounds nuw i8, ptr %23, i64 1632
  %45 = load ptr, ptr %44, align 8, !tbaa !3
  %46 = icmp eq ptr %45, null
  br i1 %46, label %47, label %48

47:                                               ; preds = %43
  tail call void (ptr, i32, ptr, ptr, ptr, ...) @IDAProcessError(ptr noundef nonnull %23, i32 noundef -2, ptr noundef nonnull @.str, ptr noundef nonnull @.str.1, ptr noundef nonnull @.str.3) #7
  br label %IDADlsSetDenseJacFn.exit

48:                                               ; preds = %43
  %49 = getelementptr inbounds nuw i8, ptr %45, i64 40
  store i32 1, ptr %49, align 8, !tbaa !17
  br label %IDADlsSetDenseJacFn.exit

IDADlsSetDenseJacFn.exit:                         ; preds = %48, %47, %42, %38, %37, %32, %27, %16, %10, %5
  %.023 = phi i32 [ -1, %5 ], [ -101, %10 ], [ -3, %16 ], [ -102, %27 ], [ -1, %32 ], [ -2, %37 ], [ 0, %38 ], [ -1, %42 ], [ -2, %47 ], [ 0, %48 ]
  ret i32 %.023
}